; Function Attrs: mustprogress nofree nounwind willreturn memory(read, inaccessiblemem: none) uwtable
define dso_local noundef zeroext i1 @_ZN4Luau16matchTableFreezeERKNS_11AstExprCallE(ptr noundef nonnull readonly align 8 captures(none) dereferenceable(76) %0) local_unnamed_addr #12 {
  %2 = getelementptr inbounds nuw i8, ptr %0, i64 48
  %3 = load i64, ptr %2, align 8, !tbaa !332
  %4 = icmp eq i64 %3, 0
  br i1 %4, label %_ZNK4Luau7AstNameneEPKc.exit.thread, label %5

5:                                                ; preds = %1
  %6 = getelementptr inbounds nuw i8, ptr %0, i64 32
  %7 = load ptr, ptr %6, align 8, !tbaa !310
  %8 = getelementptr inbounds nuw i8, ptr %7, i64 8
  %9 = load i32, ptr %8, align 8, !tbaa !317
  %10 = load i32, ptr @_ZN4Luau7AstRttiINS_16AstExprIndexNameEE5valueE, align 4, !tbaa !4
  %11 = icmp ne i32 %9, %10
  %.not15 = icmp eq ptr %7, null
  %.not = or i1 %.not15, %11
  br i1 %.not, label %_ZNK4Luau7AstNameneEPKc.exit.thread, label %12

12:                                               ; preds = %5
  %13 = getelementptr inbounds nuw i8, ptr %7, i64 40
  %14 = load ptr, ptr %13, align 8, !tbaa !571
  %.not.i = icmp eq ptr %14, null
  br i1 %.not.i, label %_ZNK4Luau7AstNameneEPKc.exit.thread, label %_ZNK4Luau7AstNameneEPKc.exit

_ZNK4Luau7AstNameneEPKc.exit:                     ; preds = %12
  %15 = tail call i32 @strcmp(ptr noundef nonnull dereferenceable(1) %14, ptr noundef nonnull dereferenceable(7) @.str.93) #34
  %.not16 = icmp eq i32 %15, 0
  br i1 %.not16, label %16, label %_ZNK4Luau7AstNameneEPKc.exit.thread

16:                                               ; preds = %_ZNK4Luau7AstNameneEPKc.exit
  %17 = getelementptr inbounds nuw i8, ptr %7, i64 32
  %18 = load ptr, ptr %17, align 8, !tbaa !319
  %19 = getelementptr inbounds nuw i8, ptr %18, i64 8
  %20 = load i32, ptr %19, align 8, !tbaa !317
  %21 = load i32, ptr @_ZN4Luau7AstRttiINS_13AstExprGlobalEE5valueE, align 4, !tbaa !4
  %22 = icmp ne i32 %20, %21
  %.not1017 = icmp eq ptr %18, null
  %.not10 = or i1 %.not1017, %22
  br i1 %.not10, label %_ZNK4Luau7AstNameneEPKc.exit.thread, label %23

23:                                               ; preds = %16
  %24 = getelementptr inbounds nuw i8, ptr %18, i64 32
  %25 = load ptr, ptr %24, align 8, !tbaa !571
  %.not.i12 = icmp eq ptr %25, null
  br i1 %.not.i12, label %_ZNK4Luau7AstNameneEPKc.exit13.thread, label %_ZNK4Luau7AstNameneEPKc.exit13

_ZNK4Luau7AstNameneEPKc.exit13:                   ; preds = %23
  %26 = tail call i32 @strcmp(ptr noundef nonnull dereferenceable(1) %25, ptr noundef nonnull dereferenceable(6) @.str.91) #34
  %.fr = freeze i32 %26
  %.not18 = icmp eq i32 %.fr, 0
  br i1 %.not18, label %_ZNK4Luau7AstNameneEPKc.exit.thread, label %_ZNK4Luau7AstNameneEPKc.exit13.thread

_ZNK4Luau7AstNameneEPKc.exit13.thread:            ; preds = %23, %_ZNK4Luau7AstNameneEPKc.exit13
  br label %_ZNK4Luau7AstNameneEPKc.exit.thread

_ZNK4Luau7AstNameneEPKc.exit.thread:              ; preds = %12, %_ZNK4Luau7AstNameneEPKc.exit13.thread, %_ZNK4Luau7AstNameneEPKc.exit13, %_ZNK4Luau7AstNameneEPKc.exit, %5, %16, %1
  %.0 = phi i1 [ false, %1 ], [ false, %_ZNK4Luau7AstNameneEPKc.exit ], [ false, %5 ], [ false, %16 ], [ false, %_ZNK4Luau7AstNameneEPKc.exit13.thread ], [ true, %_ZNK4Luau7AstNameneEPKc.exit13 ], [ false, %12 ]
  ret i1 %.0
}